target datalayout = "e-m:e-p270:32:32-p271:32:32-p272:64:64-i64:64-i128:128-f80:128-n8:16:32:64-S128"
target triple = "x86_64-pc-linux-gnu"

%struct.persist_msg_t = type { ptr, ptr, i16 }
%struct.slurm_step_id_msg = type { i64, i32, i32, i32 }
%struct.dbd_step_comp_msg = type { i32, i64, i64, i32, ptr, i64, ptr, i32, i64, i16, %struct.slurm_step_id_msg, i32 }

; Function Attrs: nounwind uwtable
define dso_local i32 @jobacct_storage_p_step_complete(ptr noundef %0, ptr noundef %1) #0 {
  %3 = alloca i32, align 4
  %4 = alloca ptr, align 8
  %5 = alloca ptr, align 8
  %6 = alloca %struct.persist_msg_t, align 8
  %7 = alloca %struct.dbd_step_comp_msg, align 8
  %8 = alloca i32, align 4
  store ptr %0, ptr %4, align 8
  store ptr %1, ptr %5, align 8
  call void @llvm.lifetime.start.p0(i64 24, ptr %6) #9
  call void @llvm.memset.p0.i64(ptr align 8 %6, i8 0, i64 24, i1 false)
  call void @llvm.lifetime.start.p0(i64 112, ptr %7) #9
  call void @llvm.memset.p0.i64(ptr align 8 %7, i8 0, i64 112, i1 false)
  %9 = load ptr, ptr %5, align 8
  %10 = call i32 @as_build_step_comp_msg(ptr noundef %7, ptr noundef %9)
  %11 = icmp ne i32 %10, 0
  br i1 %11, label %12, label %13

12:                                               ; preds = %2
  store i32 -1, ptr %3, align 4
  store i32 1, ptr %8, align 4
  br label %22

13:                                               ; preds = %2
  %14 = getelementptr inbounds nuw %struct.persist_msg_t, ptr %6, i32 0, i32 2
  store i16 1441, ptr %14, align 8
  %15 = load ptr, ptr %4, align 8
  %16 = getelementptr inbounds nuw %struct.persist_msg_t, ptr %6, i32 0, i32 0
  store ptr %15, ptr %16, align 8
  %17 = getelementptr inbounds nuw %struct.persist_msg_t, ptr %6, i32 0, i32 1
  store ptr %7, ptr %17, align 8
  %18 = call i32 @slurmdbd_agent_send(i16 noundef zeroext 11008, ptr noundef %6)
  %19 = icmp slt i32 %18, 0
  br i1 %19, label %20, label %21

20:                                               ; preds = %13
  store i32 -1, ptr %3, align 4
  store i32 1, ptr %8, align 4
  br label %22

21:                                               ; preds = %13
  store i32 0, ptr %3, align 4
  store i32 1, ptr %8, align 4
  br label %22

22:                                               ; preds = %21, %20, %12
  call void @llvm.lifetime.end.p0(i64 112, ptr %7) #9
  call void @llvm.lifetime.end.p0(i64 24, ptr %6) #9
  %23 = load i32, ptr %3, align 4
  ret i32 %23
}